target datalayout = "e-m:e-p270:32:32-p271:32:32-p272:64:64-i64:64-i128:128-f80:128-n8:16:32:64-S128"
target triple = "x86_64-pc-linux-gnu"

%struct.DdManager = type { %struct.DdNode, ptr, ptr, ptr, ptr, ptr, ptr, ptr, i32, i32, double, double, double, i32, i32, i32, i32, i32, i32, ptr, ptr, %struct.DdSubtable, i32, i32, i32, i32, i32, i32, i32, double, i32, i32, i32, ptr, i64, double, i32, ptr, ptr, ptr, ptr, ptr, ptr, ptr, i32, ptr, ptr, ptr, ptr, ptr, ptr, i32, i32, i32, double, i32, i32, i32, i32, double, double, i32, i32, i32, i32, i32, i32, i32, i32, i32, ptr, ptr, i32, i32, i32, i32, i32, i32, ptr, ptr, ptr, ptr, ptr, ptr, ptr, ptr, i32, i64, i64, i64, i32, i64, i64, double, double, double, double, double, double, i32, ptr, ptr, i64 }
%struct.DdNode = type { i32, i32, ptr, %union.anon, i64 }
%union.anon = type { %struct.DdChildren }
%struct.DdChildren = type { ptr, ptr }
%struct.DdSubtable = type { ptr, i32, i32, i32, i32, i32, i32, i32, i32, i32, i32, i32 }

@Extra_UtilMMoutOfMemory = external global ptr, align 8
@.str = private unnamed_addr constant [28 x i8] c"Unable to set aside memory\0A\00", align 1

; Function Attrs: nounwind uwtable
define ptr @Cudd_Init(i32 noundef %0, i32 noundef %1, i32 noundef %2, i32 noundef %3, i64 noundef %4) #0 {
  %6 = alloca ptr, align 8
  %7 = alloca i32, align 4
  %8 = alloca i32, align 4
  %9 = alloca i32, align 4
  %10 = alloca i32, align 4
  %11 = alloca i64, align 8
  %12 = alloca ptr, align 8
  %13 = alloca i32, align 4
  %14 = alloca i32, align 4
  %15 = alloca ptr, align 8
  %16 = alloca ptr, align 8
  %17 = alloca i32, align 4
  %18 = alloca i32, align 4
  %19 = alloca ptr, align 8
  %20 = alloca i32, align 4
  store i32 %0, ptr %7, align 4, !tbaa !3
  store i32 %1, ptr %8, align 4, !tbaa !3
  store i32 %2, ptr %9, align 4, !tbaa !3
  store i32 %3, ptr %10, align 4, !tbaa !3
  store i64 %4, ptr %11, align 8, !tbaa !7
  call void @llvm.lifetime.start.p0(i64 8, ptr %12) #5
  call void @llvm.lifetime.start.p0(i64 4, ptr %13) #5
  call void @llvm.lifetime.start.p0(i64 4, ptr %14) #5
  call void @llvm.lifetime.start.p0(i64 8, ptr %15) #5
  call void @llvm.lifetime.start.p0(i64 8, ptr %16) #5
  call void @llvm.lifetime.start.p0(i64 4, ptr %17) #5
  call void @llvm.lifetime.start.p0(i64 4, ptr %18) #5
  call void @llvm.lifetime.start.p0(i64 8, ptr %19) #5
  %21 = load i64, ptr %11, align 8, !tbaa !7
  %22 = icmp eq i64 %21, 0
  br i1 %22, label %23, label %26

23:                                               ; preds = %5
  %24 = call i32 (...) @Extra_GetSoftDataLimit()
  %25 = sext i32 %24 to i64
  store i64 %25, ptr %11, align 8, !tbaa !7
  br label %26

26:                                               ; preds = %23, %5
  %27 = load i64, ptr %11, align 8, !tbaa !7
  %28 = udiv i64 %27, 40
  %29 = udiv i64 %28, 5
  %30 = trunc i64 %29 to i32
  store i32 %30, ptr %18, align 4, !tbaa !3
  %31 = load i32, ptr %7, align 4, !tbaa !3
  %32 = load i32, ptr %8, align 4, !tbaa !3
  %33 = load i32, ptr %9, align 4, !tbaa !3
  %34 = load i32, ptr %18, align 4, !tbaa !3
  %35 = call ptr @cuddInitTable(i32 noundef %31, i32 noundef %32, i32 noundef %33, i32 noundef %34)
  store ptr %35, ptr %12, align 8, !tbaa !9
  %36 = load ptr, ptr %12, align 8, !tbaa !9
  %37 = icmp eq ptr %36, null
  br i1 %37, label %38, label %39

38:                                               ; preds = %26
  store ptr null, ptr %6, align 8
  store i32 1, ptr %20, align 4
  br label %249

39:                                               ; preds = %26
  %40 = load i64, ptr %11, align 8, !tbaa !7
  %41 = udiv i64 %40, 10
  %42 = mul i64 %41, 9
  %43 = load ptr, ptr %12, align 8, !tbaa !9
  %44 = getelementptr inbounds nuw %struct.DdManager, ptr %43, i32 0, i32 88
  store i64 %42, ptr %44, align 8, !tbaa !12
  %45 = load i64, ptr %11, align 8, !tbaa !7
  %46 = udiv i64 %45, 40
  %47 = udiv i64 %46, 3
  %48 = trunc i64 %47 to i32
  store i32 %48, ptr %17, align 4, !tbaa !3
  %49 = load ptr, ptr %12, align 8, !tbaa !9
  %50 = load i32, ptr %10, align 4, !tbaa !3
  %51 = load i32, ptr %17, align 4, !tbaa !3
  %52 = call i32 @cuddInitCache(ptr noundef %49, i32 noundef %50, i32 noundef %51)
  store i32 %52, ptr %14, align 4, !tbaa !3
  %53 = load i32, ptr %14, align 4, !tbaa !3
  %54 = icmp eq i32 %53, 0
  br i1 %54, label %55, label %56

55:                                               ; preds = %39
  store ptr null, ptr %6, align 8
  store i32 1, ptr %20, align 4
  br label %249

56:                                               ; preds = %39
  %57 = load ptr, ptr @Extra_UtilMMoutOfMemory, align 8, !tbaa !28
  store ptr %57, ptr %19, align 8, !tbaa !28
  store ptr @Cudd_OutOfMem, ptr @Extra_UtilMMoutOfMemory, align 8, !tbaa !28
  %58 = load i64, ptr %11, align 8, !tbaa !7
  %59 = udiv i64 %58, 64
  %60 = add i64 %59, 4
  %61 = mul i64 1, %60
  %62 = call noalias ptr @malloc(i64 noundef %61) #6
  %63 = load ptr, ptr %12, align 8, !tbaa !9
  %64 = getelementptr inbounds nuw %struct.DdManager, ptr %63, i32 0, i32 49
  store ptr %62, ptr %64, align 8, !tbaa !29
  %65 = load ptr, ptr %19, align 8, !tbaa !28
  store ptr %65, ptr @Extra_UtilMMoutOfMemory, align 8, !tbaa !28
  %66 = load ptr, ptr %12, align 8, !tbaa !9
  %67 = getelementptr inbounds nuw %struct.DdManager, ptr %66, i32 0, i32 49
  %68 = load ptr, ptr %67, align 8, !tbaa !29
  %69 = icmp eq ptr %68, null
  br i1 %69, label %70, label %75

70:                                               ; preds = %56
  %71 = load ptr, ptr %12, align 8, !tbaa !9
  %72 = getelementptr inbounds nuw %struct.DdManager, ptr %71, i32 0, i32 85
  %73 = load ptr, ptr %72, align 8, !tbaa !30
  %74 = call i32 (ptr, ptr, ...) @fprintf(ptr noundef %73, ptr noundef @.str) #5
  br label %75

75:                                               ; preds = %70, %56
  %76 = load ptr, ptr %12, align 8, !tbaa !9
  %77 = call ptr @cuddUniqueConst(ptr noundef %76, double noundef 1.000000e+00)
  %78 = load ptr, ptr %12, align 8, !tbaa !9
  %79 = getelementptr inbounds nuw %struct.DdManager, ptr %78, i32 0, i32 1
  store ptr %77, ptr %79, align 8, !tbaa !31
  %80 = load ptr, ptr %12, align 8, !tbaa !9
  %81 = getelementptr inbounds nuw %struct.DdManager, ptr %80, i32 0, i32 1
  %82 = load ptr, ptr %81, align 8, !tbaa !31
  %83 = icmp eq ptr %82, null
  br i1 %83, label %84, label %85

84:                                               ; preds = %75
  store ptr null, ptr %6, align 8
  store i32 1, ptr %20, align 4
  br label %249

85:                                               ; preds = %75
  %86 = load ptr, ptr %12, align 8, !tbaa !9
  %87 = getelementptr inbounds nuw %struct.DdManager, ptr %86, i32 0, i32 1
  %88 = load ptr, ptr %87, align 8, !tbaa !31
  %89 = ptrtoint ptr %88 to i64
  %90 = and i64 %89, -2
  %91 = inttoptr i64 %90 to ptr
  %92 = getelementptr inbounds nuw %struct.DdNode, ptr %91, i32 0, i32 1
  %93 = load i32, ptr %92, align 4, !tbaa !32
  %94 = add i32 %93, 1
  store i32 %94, ptr %92, align 4, !tbaa !32
  %95 = load ptr, ptr %12, align 8, !tbaa !9
  %96 = call ptr @cuddUniqueConst(ptr noundef %95, double noundef 0.000000e+00)
  %97 = load ptr, ptr %12, align 8, !tbaa !9
  %98 = getelementptr inbounds nuw %struct.DdManager, ptr %97, i32 0, i32 2
  store ptr %96, ptr %98, align 8, !tbaa !33
  %99 = load ptr, ptr %12, align 8, !tbaa !9
  %100 = getelementptr inbounds nuw %struct.DdManager, ptr %99, i32 0, i32 2
  %101 = load ptr, ptr %100, align 8, !tbaa !33
  %102 = icmp eq ptr %101, null
  br i1 %102, label %103, label %104

103:                                              ; preds = %85
  store ptr null, ptr %6, align 8
  store i32 1, ptr %20, align 4
  br label %249

104:                                              ; preds = %85
  %105 = load ptr, ptr %12, align 8, !tbaa !9
  %106 = getelementptr inbounds nuw %struct.DdManager, ptr %105, i32 0, i32 2
  %107 = load ptr, ptr %106, align 8, !tbaa !33
  %108 = ptrtoint ptr %107 to i64
  %109 = and i64 %108, -2
  %110 = inttoptr i64 %109 to ptr
  %111 = getelementptr inbounds nuw %struct.DdNode, ptr %110, i32 0, i32 1
  %112 = load i32, ptr %111, align 4, !tbaa !32
  %113 = add i32 %112, 1
  store i32 %113, ptr %111, align 4, !tbaa !32
  %114 = load ptr, ptr %12, align 8, !tbaa !9
  %115 = call ptr @cuddUniqueConst(ptr noundef %114, double noundef 1.000000e+302)
  %116 = load ptr, ptr %12, align 8, !tbaa !9
  %117 = getelementptr inbounds nuw %struct.DdManager, ptr %116, i32 0, i32 3
  store ptr %115, ptr %117, align 8, !tbaa !34
  %118 = load ptr, ptr %12, align 8, !tbaa !9
  %119 = getelementptr inbounds nuw %struct.DdManager, ptr %118, i32 0, i32 3
  %120 = load ptr, ptr %119, align 8, !tbaa !34
  %121 = icmp eq ptr %120, null
  br i1 %121, label %122, label %123

122:                                              ; preds = %104
  store ptr null, ptr %6, align 8
  store i32 1, ptr %20, align 4
  br label %249

123:                                              ; preds = %104
  %124 = load ptr, ptr %12, align 8, !tbaa !9
  %125 = getelementptr inbounds nuw %struct.DdManager, ptr %124, i32 0, i32 3
  %126 = load ptr, ptr %125, align 8, !tbaa !34
  %127 = ptrtoint ptr %126 to i64
  %128 = and i64 %127, -2
  %129 = inttoptr i64 %128 to ptr
  %130 = getelementptr inbounds nuw %struct.DdNode, ptr %129, i32 0, i32 1
  %131 = load i32, ptr %130, align 4, !tbaa !32
  %132 = add i32 %131, 1
  store i32 %132, ptr %130, align 4, !tbaa !32
  %133 = load ptr, ptr %12, align 8, !tbaa !9
  %134 = call ptr @cuddUniqueConst(ptr noundef %133, double noundef -1.000000e+302)
  %135 = load ptr, ptr %12, align 8, !tbaa !9
  %136 = getelementptr inbounds nuw %struct.DdManager, ptr %135, i32 0, i32 4
  store ptr %134, ptr %136, align 8, !tbaa !35
  %137 = load ptr, ptr %12, align 8, !tbaa !9
  %138 = getelementptr inbounds nuw %struct.DdManager, ptr %137, i32 0, i32 4
  %139 = load ptr, ptr %138, align 8, !tbaa !35
  %140 = icmp eq ptr %139, null
  br i1 %140, label %141, label %142

141:                                              ; preds = %123
  store ptr null, ptr %6, align 8
  store i32 1, ptr %20, align 4
  br label %249

142:                                              ; preds = %123
  %143 = load ptr, ptr %12, align 8, !tbaa !9
  %144 = getelementptr inbounds nuw %struct.DdManager, ptr %143, i32 0, i32 4
  %145 = load ptr, ptr %144, align 8, !tbaa !35
  %146 = ptrtoint ptr %145 to i64
  %147 = and i64 %146, -2
  %148 = inttoptr i64 %147 to ptr
  %149 = getelementptr inbounds nuw %struct.DdNode, ptr %148, i32 0, i32 1
  %150 = load i32, ptr %149, align 4, !tbaa !32
  %151 = add i32 %150, 1
  store i32 %151, ptr %149, align 4, !tbaa !32
  %152 = load ptr, ptr %12, align 8, !tbaa !9
  %153 = getelementptr inbounds nuw %struct.DdManager, ptr %152, i32 0, i32 2
  %154 = load ptr, ptr %153, align 8, !tbaa !33
  %155 = load ptr, ptr %12, align 8, !tbaa !9
  %156 = getelementptr inbounds nuw %struct.DdManager, ptr %155, i32 0, i32 5
  store ptr %154, ptr %156, align 8, !tbaa !36
  %157 = load ptr, ptr %12, align 8, !tbaa !9
  %158 = getelementptr inbounds nuw %struct.DdManager, ptr %157, i32 0, i32 1
  %159 = load ptr, ptr %158, align 8, !tbaa !31
  store ptr %159, ptr %15, align 8, !tbaa !37
  %160 = load ptr, ptr %15, align 8, !tbaa !37
  %161 = ptrtoint ptr %160 to i64
  %162 = xor i64 %161, 1
  %163 = inttoptr i64 %162 to ptr
  store ptr %163, ptr %16, align 8, !tbaa !37
  %164 = load ptr, ptr %12, align 8, !tbaa !9
  %165 = getelementptr inbounds nuw %struct.DdManager, ptr %164, i32 0, i32 17
  %166 = load i32, ptr %165, align 8, !tbaa !38
  %167 = sext i32 %166 to i64
  %168 = mul i64 8, %167
  %169 = call noalias ptr @malloc(i64 noundef %168) #6
  %170 = load ptr, ptr %12, align 8, !tbaa !9
  %171 = getelementptr inbounds nuw %struct.DdManager, ptr %170, i32 0, i32 41
  store ptr %169, ptr %171, align 8, !tbaa !39
  %172 = load ptr, ptr %12, align 8, !tbaa !9
  %173 = getelementptr inbounds nuw %struct.DdManager, ptr %172, i32 0, i32 41
  %174 = load ptr, ptr %173, align 8, !tbaa !39
  %175 = icmp eq ptr %174, null
  br i1 %175, label %176, label %179

176:                                              ; preds = %142
  %177 = load ptr, ptr %12, align 8, !tbaa !9
  %178 = getelementptr inbounds nuw %struct.DdManager, ptr %177, i32 0, i32 86
  store i32 1, ptr %178, align 8, !tbaa !40
  store ptr null, ptr %6, align 8
  store i32 1, ptr %20, align 4
  br label %249

179:                                              ; preds = %142
  store i32 0, ptr %13, align 4, !tbaa !3
  br label %180

180:                                              ; preds = %221, %179
  %181 = load i32, ptr %13, align 4, !tbaa !3
  %182 = load ptr, ptr %12, align 8, !tbaa !9
  %183 = getelementptr inbounds nuw %struct.DdManager, ptr %182, i32 0, i32 15
  %184 = load i32, ptr %183, align 8, !tbaa !41
  %185 = icmp slt i32 %181, %184
  br i1 %185, label %186, label %224

186:                                              ; preds = %180
  %187 = load ptr, ptr %12, align 8, !tbaa !9
  %188 = load i32, ptr %13, align 4, !tbaa !3
  %189 = load ptr, ptr %15, align 8, !tbaa !37
  %190 = load ptr, ptr %16, align 8, !tbaa !37
  %191 = call ptr @cuddUniqueInter(ptr noundef %187, i32 noundef %188, ptr noundef %189, ptr noundef %190)
  %192 = load ptr, ptr %12, align 8, !tbaa !9
  %193 = getelementptr inbounds nuw %struct.DdManager, ptr %192, i32 0, i32 41
  %194 = load ptr, ptr %193, align 8, !tbaa !39
  %195 = load i32, ptr %13, align 4, !tbaa !3
  %196 = sext i32 %195 to i64
  %197 = getelementptr inbounds ptr, ptr %194, i64 %196
  store ptr %191, ptr %197, align 8, !tbaa !37
  %198 = load ptr, ptr %12, align 8, !tbaa !9
  %199 = getelementptr inbounds nuw %struct.DdManager, ptr %198, i32 0, i32 41
  %200 = load ptr, ptr %199, align 8, !tbaa !39
  %201 = load i32, ptr %13, align 4, !tbaa !3
  %202 = sext i32 %201 to i64
  %203 = getelementptr inbounds ptr, ptr %200, i64 %202
  %204 = load ptr, ptr %203, align 8, !tbaa !37
  %205 = icmp eq ptr %204, null
  br i1 %205, label %206, label %207

206:                                              ; preds = %186
  store ptr null, ptr %6, align 8
  store i32 1, ptr %20, align 4
  br label %249

207:                                              ; preds = %186
  %208 = load ptr, ptr %12, align 8, !tbaa !9
  %209 = getelementptr inbounds nuw %struct.DdManager, ptr %208, i32 0, i32 41
  %210 = load ptr, ptr %209, align 8, !tbaa !39
  %211 = load i32, ptr %13, align 4, !tbaa !3
  %212 = sext i32 %211 to i64
  %213 = getelementptr inbounds ptr, ptr %210, i64 %212
  %214 = load ptr, ptr %213, align 8, !tbaa !37
  %215 = ptrtoint ptr %214 to i64
  %216 = and i64 %215, -2
  %217 = inttoptr i64 %216 to ptr
  %218 = getelementptr inbounds nuw %struct.DdNode, ptr %217, i32 0, i32 1
  %219 = load i32, ptr %218, align 4, !tbaa !32
  %220 = add i32 %219, 1
  store i32 %220, ptr %218, align 4, !tbaa !32
  br label %221

221:                                              ; preds = %207
  %222 = load i32, ptr %13, align 4, !tbaa !3
  %223 = add nsw i32 %222, 1
  store i32 %223, ptr %13, align 4, !tbaa !3
  br label %180, !llvm.loop !42

224:                                              ; preds = %180
  %225 = load ptr, ptr %12, align 8, !tbaa !9
  %226 = getelementptr inbounds nuw %struct.DdManager, ptr %225, i32 0, i32 16
  %227 = load i32, ptr %226, align 4, !tbaa !44
  %228 = icmp ne i32 %227, 0
  br i1 %228, label %229, label %232

229:                                              ; preds = %224
  %230 = load ptr, ptr %12, align 8, !tbaa !9
  %231 = call i32 @cuddZddInitUniv(ptr noundef %230)
  br label %232

232:                                              ; preds = %229, %224
  %233 = load ptr, ptr %12, align 8, !tbaa !9
  %234 = getelementptr inbounds nuw %struct.DdManager, ptr %233, i32 0, i32 17
  %235 = load i32, ptr %234, align 8, !tbaa !38
  %236 = sext i32 %235 to i64
  %237 = mul i64 8, %236
  %238 = load ptr, ptr %12, align 8, !tbaa !9
  %239 = getelementptr inbounds nuw %struct.DdManager, ptr %238, i32 0, i32 87
  %240 = load i64, ptr %239, align 8, !tbaa !45
  %241 = add i64 %240, %237
  store i64 %241, ptr %239, align 8, !tbaa !45
  %242 = load ptr, ptr %12, align 8, !tbaa !9
  %243 = getelementptr inbounds nuw %struct.DdManager, ptr %242, i32 0, i32 100
  store ptr null, ptr %243, align 8, !tbaa !46
  %244 = load ptr, ptr %12, align 8, !tbaa !9
  %245 = getelementptr inbounds nuw %struct.DdManager, ptr %244, i32 0, i32 101
  store ptr null, ptr %245, align 8, !tbaa !47
  %246 = load ptr, ptr %12, align 8, !tbaa !9
  %247 = getelementptr inbounds nuw %struct.DdManager, ptr %246, i32 0, i32 102
  store i64 0, ptr %247, align 8, !tbaa !48
  %248 = load ptr, ptr %12, align 8, !tbaa !9
  store ptr %248, ptr %6, align 8
  store i32 1, ptr %20, align 4
  br label %249

249:                                              ; preds = %232, %206, %176, %141, %122, %103, %84, %55, %38
  call void @llvm.lifetime.end.p0(i64 8, ptr %19) #5
  call void @llvm.lifetime.end.p0(i64 4, ptr %18) #5
  call void @llvm.lifetime.end.p0(i64 4, ptr %17) #5
  call void @llvm.lifetime.end.p0(i64 8, ptr %16) #5
  call void @llvm.lifetime.end.p0(i64 8, ptr %15) #5
  call void @llvm.lifetime.end.p0(i64 4, ptr %14) #5
  call void @llvm.lifetime.end.p0(i64 4, ptr %13) #5
  call void @llvm.lifetime.end.p0(i64 8, ptr %12) #5
  %250 = load ptr, ptr %6, align 8
  ret ptr %250
}