; Function Attrs: nounwind uwtable
define ptr @Cudd_Init(i32 noundef %0, i32 noundef %1, i32 noundef %2, i32 noundef %3, i64 noundef %4) local_unnamed_addr #0 {
  %6 = icmp eq i64 %4, 0
  br i1 %6, label %7, label %10

7:                                                ; preds = %5
  %8 = tail call i32 (...) @Extra_GetSoftDataLimit() #6
  %9 = sext i32 %8 to i64
  br label %10

10:                                               ; preds = %7, %5
  %.064 = phi i64 [ %9, %7 ], [ %4, %5 ]
  %11 = udiv i64 %.064, 200
  %12 = trunc i64 %11 to i32
  %13 = tail call ptr @cuddInitTable(i32 noundef %0, i32 noundef %1, i32 noundef %2, i32 noundef %12) #6
  %14 = icmp eq ptr %13, null
  br i1 %14, label %.loopexit, label %15

15:                                               ; preds = %10
  %16 = udiv i64 %.064, 10
  %17 = mul nuw i64 %16, 9
  %18 = getelementptr inbounds nuw i8, ptr %13, i64 640
  store i64 %17, ptr %18, align 8, !tbaa !3
  %19 = udiv i64 %.064, 120
  %20 = trunc i64 %19 to i32
  %21 = tail call i32 @cuddInitCache(ptr noundef nonnull %13, i32 noundef %3, i32 noundef %20) #6
  %22 = icmp eq i32 %21, 0
  br i1 %22, label %.loopexit, label %23

23:                                               ; preds = %15
  %24 = lshr i64 %.064, 6
  %25 = add nuw nsw i64 %24, 4
  %26 = tail call noalias ptr @malloc(i64 noundef %25) #7
  %27 = getelementptr inbounds nuw i8, ptr %13, i64 408
  store ptr %26, ptr %27, align 8, !tbaa !24
  %28 = icmp eq ptr %26, null
  br i1 %28, label %29, label %33

29:                                               ; preds = %23
  %30 = getelementptr inbounds nuw i8, ptr %13, i64 616
  %31 = load ptr, ptr %30, align 8, !tbaa !25
  %32 = tail call i64 @fwrite(ptr nonnull @.str, i64 27, i64 1, ptr %31)
  br label %33

33:                                               ; preds = %29, %23
  %34 = tail call ptr @cuddUniqueConst(ptr noundef nonnull %13, double noundef 1.000000e+00) #6
  %35 = getelementptr inbounds nuw i8, ptr %13, i64 40
  store ptr %34, ptr %35, align 8, !tbaa !26
  %36 = icmp eq ptr %34, null
  br i1 %36, label %.loopexit, label %37

37:                                               ; preds = %33
  %38 = ptrtoint ptr %34 to i64
  %39 = and i64 %38, -2
  %40 = inttoptr i64 %39 to ptr
  %41 = getelementptr inbounds nuw i8, ptr %40, i64 4
  %42 = load i32, ptr %41, align 4, !tbaa !27
  %43 = add i32 %42, 1
  store i32 %43, ptr %41, align 4, !tbaa !27
  %44 = tail call ptr @cuddUniqueConst(ptr noundef nonnull %13, double noundef 0.000000e+00) #6
  %45 = getelementptr inbounds nuw i8, ptr %13, i64 48
  store ptr %44, ptr %45, align 8, !tbaa !28
  %46 = icmp eq ptr %44, null
  br i1 %46, label %.loopexit, label %47

47:                                               ; preds = %37
  %48 = ptrtoint ptr %44 to i64
  %49 = and i64 %48, -2
  %50 = inttoptr i64 %49 to ptr
  %51 = getelementptr inbounds nuw i8, ptr %50, i64 4
  %52 = load i32, ptr %51, align 4, !tbaa !27
  %53 = add i32 %52, 1
  store i32 %53, ptr %51, align 4, !tbaa !27
  %54 = tail call ptr @cuddUniqueConst(ptr noundef nonnull %13, double noundef 1.000000e+302) #6
  %55 = getelementptr inbounds nuw i8, ptr %13, i64 56
  store ptr %54, ptr %55, align 8, !tbaa !29
  %56 = icmp eq ptr %54, null
  br i1 %56, label %.loopexit, label %57

57:                                               ; preds = %47
  %58 = ptrtoint ptr %54 to i64
  %59 = and i64 %58, -2
  %60 = inttoptr i64 %59 to ptr
  %61 = getelementptr inbounds nuw i8, ptr %60, i64 4
  %62 = load i32, ptr %61, align 4, !tbaa !27
  %63 = add i32 %62, 1
  store i32 %63, ptr %61, align 4, !tbaa !27
  %64 = tail call ptr @cuddUniqueConst(ptr noundef nonnull %13, double noundef -1.000000e+302) #6
  %65 = getelementptr inbounds nuw i8, ptr %13, i64 64
  store ptr %64, ptr %65, align 8, !tbaa !30
  %66 = icmp eq ptr %64, null
  br i1 %66, label %.loopexit, label %67

67:                                               ; preds = %57
  %68 = ptrtoint ptr %64 to i64
  %69 = and i64 %68, -2
  %70 = inttoptr i64 %69 to ptr
  %71 = getelementptr inbounds nuw i8, ptr %70, i64 4
  %72 = load i32, ptr %71, align 4, !tbaa !27
  %73 = add i32 %72, 1
  store i32 %73, ptr %71, align 4, !tbaa !27
  %74 = load ptr, ptr %45, align 8, !tbaa !28
  %75 = getelementptr inbounds nuw i8, ptr %13, i64 72
  store ptr %74, ptr %75, align 8, !tbaa !31
  %76 = load ptr, ptr %35, align 8, !tbaa !26
  %77 = ptrtoint ptr %76 to i64
  %78 = xor i64 %77, 1
  %79 = inttoptr i64 %78 to ptr
  %80 = getelementptr inbounds nuw i8, ptr %13, i64 144
  %81 = load i32, ptr %80, align 8, !tbaa !32
  %82 = sext i32 %81 to i64
  %83 = shl nsw i64 %82, 3
  %84 = tail call noalias ptr @malloc(i64 noundef %83) #7
  %85 = getelementptr inbounds nuw i8, ptr %13, i64 344
  store ptr %84, ptr %85, align 8, !tbaa !33
  %86 = icmp eq ptr %84, null
  br i1 %86, label %90, label %.preheader

.preheader:                                       ; preds = %67
  %87 = getelementptr inbounds nuw i8, ptr %13, i64 136
  %88 = load i32, ptr %87, align 8, !tbaa !34
  %89 = icmp sgt i32 %88, 0
  br i1 %89, label %.lr.ph, label %._crit_edge

90:                                               ; preds = %67
  %91 = getelementptr inbounds nuw i8, ptr %13, i64 624
  store i32 1, ptr %91, align 8, !tbaa !35
  br label %.loopexit

.lr.ph:                                           ; preds = %.preheader, %97
  %indvars.iv = phi i64 [ %indvars.iv.next, %97 ], [ 0, %.preheader ]
  %92 = trunc nuw nsw i64 %indvars.iv to i32
  %93 = tail call ptr @cuddUniqueInter(ptr noundef nonnull %13, i32 noundef %92, ptr noundef %76, ptr noundef %79) #6
  %94 = load ptr, ptr %85, align 8, !tbaa !33
  %95 = getelementptr inbounds nuw ptr, ptr %94, i64 %indvars.iv
  store ptr %93, ptr %95, align 8, !tbaa !36
  %96 = icmp eq ptr %93, null
  br i1 %96, label %.loopexit, label %97

97:                                               ; preds = %.lr.ph
  %98 = ptrtoint ptr %93 to i64
  %99 = and i64 %98, -2
  %100 = inttoptr i64 %99 to ptr
  %101 = getelementptr inbounds nuw i8, ptr %100, i64 4
  %102 = load i32, ptr %101, align 4, !tbaa !27
  %103 = add i32 %102, 1
  store i32 %103, ptr %101, align 4, !tbaa !27
  %indvars.iv.next = add nuw nsw i64 %indvars.iv, 1
  %104 = load i32, ptr %87, align 8, !tbaa !34
  %105 = sext i32 %104 to i64
  %106 = icmp slt i64 %indvars.iv.next, %105
  br i1 %106, label %.lr.ph, label %._crit_edge, !llvm.loop !37

._crit_edge:                                      ; preds = %97, %.preheader
  %107 = getelementptr inbounds nuw i8, ptr %13, i64 140
  %108 = load i32, ptr %107, align 4, !tbaa !39
  %.not = icmp eq i32 %108, 0
  br i1 %.not, label %111, label %109

109:                                              ; preds = %._crit_edge
  %110 = tail call i32 @cuddZddInitUniv(ptr noundef nonnull %13)
  br label %111

111:                                              ; preds = %109, %._crit_edge
  %112 = load i32, ptr %80, align 8, !tbaa !32
  %113 = sext i32 %112 to i64
  %114 = shl nsw i64 %113, 3
  %115 = getelementptr inbounds nuw i8, ptr %13, i64 632
  %116 = load i64, ptr %115, align 8, !tbaa !40
  %117 = add i64 %114, %116
  store i64 %117, ptr %115, align 8, !tbaa !40
  %118 = getelementptr inbounds nuw i8, ptr %13, i64 736
  tail call void @llvm.memset.p0.i64(ptr noundef nonnull align 8 dereferenceable(24) %118, i8 0, i64 24, i1 false)
  br label %.loopexit

.loopexit:                                        ; preds = %.lr.ph, %57, %47, %37, %33, %15, %10, %111, %90
  %.0 = phi ptr [ null, %90 ], [ %13, %111 ], [ null, %10 ], [ null, %15 ], [ null, %33 ], [ null, %37 ], [ null, %47 ], [ null, %57 ], [ null, %.lr.ph ]
  ret ptr %.0
}